; Listing generated by Microsoft (R) Optimizing Compiler Version 19.25.28612.0 

	TITLE	C:\Users\user\source\repos\libdeflate_optimize\libdeflate_optimize\main.cpp
	.686P
	.XMM
	include listing.inc
	.model	flat

INCLUDELIB MSVCRTD
INCLUDELIB OLDNAMES

msvcjmc	SEGMENT
__47A90C35_vcruntime_new@h DB 01H
__09340588_corecrt_math@h DB 01H
__24E9E95F_stdlib@h DB 01H
__3ADEFC50_cstdlib DB 01H
__214B6046_cmath DB 01H
__F66CEB67_corecrt_stdio_config@h DB 01H
__101834BA_corecrt_wstdio@h DB 01H
__AD6A91B7_stdio@h DB 01H
__AF2D6193_type_traits DB 01H
__B0C4CEA9_malloc@h DB 01H
__99999F74_vcruntime_exception@h DB 01H
__0ABCEC93_exception DB 01H
__367CC694_corecrt_memcpy_s@h DB 01H
__35D7DDB3_corecrt_memory@h DB 01H
__DC9673E3_corecrt_wstring@h DB 01H
__A29A7DFB_string@h DB 01H
__5467428D_corecrt_wconio@h DB 01H
__4442441F_corecrt_wio@h DB 01H
__45F4AF76_corecrt_wtime@h DB 01H
__186FF47F_stat@h DB 01H
__534C724A_wchar@h DB 01H
__EA1B4990_limits DB 01H
__E4812FB1_xutility DB 01H
__67461A18_xmemory DB 01H
__13959C84_xstring DB 01H
__83F2D6CE_stdexcept DB 01H
__81F03EE0_xcall_once@h DB 01H
__3EAD2CC0_system_error DB 01H
__84C161B0_vcruntime_typeinfo@h DB 01H
__945EDCA8_typeinfo DB 01H
__56B5451E_memory DB 01H
__7AF01211_xfacet DB 01H
__7242C389_ctype@h DB 01H
__8BD73F60_xlocinfo DB 01H
__CCABE8B5_xlocale DB 01H
__B2324873_xiosbase DB 01H
__522C8EA2_xlocnum DB 01H
__5781BAB1_ios DB 01H
__90A1F774_basetsd@h DB 01H
__3C23D660_guiddef@h DB 01H
__AF541008_winnt@h DB 01H
__0D001789_processthreadsapi@h DB 01H
__F972325D_memoryapi@h DB 01H
__76CD430D_winerror@h DB 01H
__737D49DB_winbase@h DB 01H
__1B9502AC_winuser@h DB 01H
__376EBCA0_winioctl@h DB 01H
__2CCBBE23_propidl@h DB 01H
__AD360DAF_oleauto@h DB 01H
__0396F1A5_stralign@h DB 01H
__6FD9CA0A_main@cpp DB 01H
__BC6B074B_istream DB 01H
__DFBB3271_ostream DB 01H
__81526E72_streambuf DB 01H
__26F29C16_iosfwd DB 01H
__0DD379DB_utility DB 01H
__FACCEEC9_xstddef DB 01H
__00B06045_xatomic@h DB 01H
msvcjmc	ENDS
PUBLIC	?__empty_global_delete@@YAXPAX@Z		; __empty_global_delete
PUBLIC	?__empty_global_delete@@YAXPAXI@Z		; __empty_global_delete
PUBLIC	__JustMyCode_Default
EXTRN	@__CheckForDebuggerJustMyCode@4:PROC
EXTRN	__RTC_CheckEsp:PROC
EXTRN	__RTC_InitBase:PROC
EXTRN	__RTC_Shutdown:PROC
;	COMDAT rtc$TMZ
rtc$TMZ	SEGMENT
__RTC_Shutdown.rtc$TMZ DD FLAT:__RTC_Shutdown
rtc$TMZ	ENDS
;	COMDAT rtc$IMZ
rtc$IMZ	SEGMENT
__RTC_InitBase.rtc$IMZ DD FLAT:__RTC_InitBase
rtc$IMZ	ENDS
; Function compile flags: /Odt
;	COMDAT __JustMyCode_Default
_TEXT	SEGMENT
__JustMyCode_Default PROC				; COMDAT
  00000	55		 push	 ebp
  00001	8b ec		 mov	 ebp, esp
  00003	5d		 pop	 ebp
  00004	c3		 ret	 0
__JustMyCode_Default ENDP
_TEXT	ENDS
; Function compile flags: /Odtp /RTCsu /ZI
; File C:\Users\user\source\repos\libdeflate_optimize\libdeflate_optimize\main.cpp
;	COMDAT ?__empty_global_delete@@YAXPAXI@Z
_TEXT	SEGMENT
___formal$ = 8						; size = 4
___formal$ = 12						; size = 4
?__empty_global_delete@@YAXPAXI@Z PROC			; __empty_global_delete, COMDAT

  00000	55		 push	 ebp
  00001	8b ec		 mov	 ebp, esp
  00003	81 ec c0 00 00
	00		 sub	 esp, 192		; 000000c0H
  00009	53		 push	 ebx
  0000a	56		 push	 esi
  0000b	57		 push	 edi
  0000c	8d bd 40 ff ff
	ff		 lea	 edi, DWORD PTR [ebp-192]
  00012	b9 30 00 00 00	 mov	 ecx, 48			; 00000030H
  00017	b8 cc cc cc cc	 mov	 eax, -858993460		; ccccccccH
  0001c	f3 ab		 rep stosd
  0001e	b9 00 00 00 00	 mov	 ecx, OFFSET __6FD9CA0A_main@cpp
  00023	e8 00 00 00 00	 call	 @__CheckForDebuggerJustMyCode@4
  00028	5f		 pop	 edi
  00029	5e		 pop	 esi
  0002a	5b		 pop	 ebx
  0002b	81 c4 c0 00 00
	00		 add	 esp, 192		; 000000c0H
  00031	3b ec		 cmp	 ebp, esp
  00033	e8 00 00 00 00	 call	 __RTC_CheckEsp
  00038	8b e5		 mov	 esp, ebp
  0003a	5d		 pop	 ebp
  0003b	c3		 ret	 0
?__empty_global_delete@@YAXPAXI@Z ENDP			; __empty_global_delete
_TEXT	ENDS
; Function compile flags: /Odtp /RTCsu /ZI
; File C:\Users\user\source\repos\libdeflate_optimize\libdeflate_optimize\main.cpp
;	COMDAT ?__empty_global_delete@@YAXPAX@Z
_TEXT	SEGMENT
___formal$ = 8						; size = 4
?__empty_global_delete@@YAXPAX@Z PROC			; __empty_global_delete, COMDAT

  00000	55		 push	 ebp
  00001	8b ec		 mov	 ebp, esp
  00003	81 ec c0 00 00
	00		 sub	 esp, 192		; 000000c0H
  00009	53		 push	 ebx
  0000a	56		 push	 esi
  0000b	57		 push	 edi
  0000c	8d bd 40 ff ff
	ff		 lea	 edi, DWORD PTR [ebp-192]
  00012	b9 30 00 00 00	 mov	 ecx, 48			; 00000030H
  00017	b8 cc cc cc cc	 mov	 eax, -858993460		; ccccccccH
  0001c	f3 ab		 rep stosd
  0001e	b9 00 00 00 00	 mov	 ecx, OFFSET __6FD9CA0A_main@cpp
  00023	e8 00 00 00 00	 call	 @__CheckForDebuggerJustMyCode@4
  00028	5f		 pop	 edi
  00029	5e		 pop	 esi
  0002a	5b		 pop	 ebx
  0002b	81 c4 c0 00 00
	00		 add	 esp, 192		; 000000c0H
  00031	3b ec		 cmp	 ebp, esp
  00033	e8 00 00 00 00	 call	 __RTC_CheckEsp
  00038	8b e5		 mov	 esp, ebp
  0003a	5d		 pop	 ebp
  0003b	c3		 ret	 0
?__empty_global_delete@@YAXPAX@Z ENDP			; __empty_global_delete
_TEXT	ENDS
END
